target datalayout = "e-m:e-p270:32:32-p271:32:32-p272:64:64-i64:64-i128:128-f80:128-n8:16:32:64-S128"
target triple = "x86_64-pc-linux-gnu"

%struct._packet_info = type { ptr, ptr, i32, i32, %struct.nstime_t, %struct.nstime_t, %struct.nstime_t, i8, ptr, ptr, ptr, ptr, %struct._address, %struct._address, %struct._address, %struct._address, %struct._address, %struct._address, i32, ptr, i8, [3 x i8], %struct.anon, i32, i32, i32, i32, ptr, i8, ptr, ptr, i16, i16, i32, i32, i16, i32, i32, ptr, ptr, ptr, i8, i8, i16, i16, i16, i32, i16, i16, ptr, ptr, ptr, ptr, ptr, i32, i32 }
%struct.nstime_t = type { i64, i32 }
%struct._address = type { i32, i32, ptr, ptr }
%struct.anon = type { i8, [3 x i8] }
%struct.acn_dmp_adt_type = type { i8, i32, i32, i32, i32, i32 }

@hf_acn_data8 = internal global i32 0, align 4
@.str.775 = private unnamed_addr constant [16 x i8] c"Addr 0x%2.2X ->\00", align 1
@.str.776 = private unnamed_addr constant [16 x i8] c"Addr 0x%4.4X ->\00", align 1
@.str.777 = private unnamed_addr constant [16 x i8] c"Addr 0x%8.8X ->\00", align 1
@.str.784 = private unnamed_addr constant [22 x i8] c"reason not valid (%d)\00", align 1
@.str.785 = private unnamed_addr constant [6 x i8] c"%s %s\00", align 1

; Function Attrs: null_pointer_is_valid sspstrong uwtable
define internal i32 @acn_add_dmp_reason_codes(ptr noundef %0, ptr noundef %1, ptr noundef %2, i32 noundef %3, ptr noundef %4) #0 {
  %6 = alloca i32, align 4
  %7 = alloca ptr, align 8
  %8 = alloca ptr, align 8
  %9 = alloca ptr, align 8
  %10 = alloca i32, align 4
  %11 = alloca ptr, align 8
  %12 = alloca i8, align 1
  %13 = alloca i8, align 1
  %14 = alloca i32, align 4
  %15 = alloca i32, align 4
  %16 = alloca i32, align 4
  %17 = alloca ptr, align 8
  %18 = alloca ptr, align 8
  %19 = alloca i32, align 4
  store ptr %0, ptr %7, align 8
  store ptr %1, ptr %8, align 8
  store ptr %2, ptr %9, align 8
  store i32 %3, ptr %10, align 4
  store ptr %4, ptr %11, align 8
  call void @llvm.lifetime.start.p0(i64 1, ptr %12) #7
  call void @llvm.lifetime.start.p0(i64 1, ptr %13) #7
  call void @llvm.lifetime.start.p0(i64 4, ptr %14) #7
  call void @llvm.lifetime.start.p0(i64 4, ptr %15) #7
  call void @llvm.lifetime.start.p0(i64 4, ptr %16) #7
  call void @llvm.lifetime.start.p0(i64 8, ptr %17) #7
  call void @llvm.lifetime.start.p0(i64 8, ptr %18) #7
  %20 = load ptr, ptr %11, align 8
  %21 = getelementptr inbounds nuw %struct.acn_dmp_adt_type, ptr %20, i32 0, i32 0
  %22 = load i8, ptr %21, align 4
  %23 = zext i8 %22 to i32
  %24 = and i32 %23, 48
  %25 = ashr i32 %24, 4
  %26 = trunc i32 %25 to i8
  store i8 %26, ptr %12, align 1
  %27 = load ptr, ptr %11, align 8
  %28 = getelementptr inbounds nuw %struct.acn_dmp_adt_type, ptr %27, i32 0, i32 0
  %29 = load i8, ptr %28, align 4
  %30 = zext i8 %29 to i32
  %31 = and i32 %30, 3
  %32 = trunc i32 %31 to i8
  store i8 %32, ptr %13, align 1
  %33 = load i8, ptr %12, align 1
  %34 = zext i8 %33 to i32
  switch i32 %34, label %196 [
    i32 0, label %35
    i32 1, label %78
    i32 2, label %137
    i32 3, label %137
  ]

35:                                               ; preds = %5
  %36 = load ptr, ptr %11, align 8
  %37 = getelementptr inbounds nuw %struct.acn_dmp_adt_type, ptr %36, i32 0, i32 1
  %38 = load i32, ptr %37, align 4
  store i32 %38, ptr %15, align 4
  %39 = load i8, ptr %13, align 1
  %40 = zext i8 %39 to i32
  switch i32 %40, label %59 [
    i32 0, label %41
    i32 1, label %47
    i32 2, label %53
  ]

41:                                               ; preds = %35
  %42 = load ptr, ptr %8, align 8
  %43 = getelementptr inbounds nuw %struct._packet_info, ptr %42, i32 0, i32 51
  %44 = load ptr, ptr %43, align 8
  %45 = load i32, ptr %15, align 4
  %46 = call noalias ptr (ptr, ptr, ...) @wmem_strdup_printf(ptr noundef %44, ptr noundef @.str.775, i32 noundef %45)
  store ptr %46, ptr %17, align 8
  br label %61

47:                                               ; preds = %35
  %48 = load ptr, ptr %8, align 8
  %49 = getelementptr inbounds nuw %struct._packet_info, ptr %48, i32 0, i32 51
  %50 = load ptr, ptr %49, align 8
  %51 = load i32, ptr %15, align 4
  %52 = call noalias ptr (ptr, ptr, ...) @wmem_strdup_printf(ptr noundef %50, ptr noundef @.str.776, i32 noundef %51)
  store ptr %52, ptr %17, align 8
  br label %61

53:                                               ; preds = %35
  %54 = load ptr, ptr %8, align 8
  %55 = getelementptr inbounds nuw %struct._packet_info, ptr %54, i32 0, i32 51
  %56 = load ptr, ptr %55, align 8
  %57 = load i32, ptr %15, align 4
  %58 = call noalias ptr (ptr, ptr, ...) @wmem_strdup_printf(ptr noundef %56, ptr noundef @.str.777, i32 noundef %57)
  store ptr %58, ptr %17, align 8
  br label %61

59:                                               ; preds = %35
  %60 = load i32, ptr %10, align 4
  store i32 %60, ptr %6, align 4
  store i32 1, ptr %19, align 4
  br label %198

61:                                               ; preds = %53, %47, %41
  %62 = load ptr, ptr %7, align 8
  %63 = load i32, ptr %10, align 4
  %64 = call zeroext i8 @tvb_get_uint8(ptr noundef %62, i32 noundef %63)
  %65 = zext i8 %64 to i32
  store i32 %65, ptr %14, align 4
  %66 = load i32, ptr %14, align 4
  %67 = call ptr @val_to_str(i32 noundef %66, ptr noundef @acn_dmp_reason_code_vals, ptr noundef @.str.784)
  store ptr %67, ptr %18, align 8
  %68 = load ptr, ptr %9, align 8
  %69 = load i32, ptr @hf_acn_data8, align 4
  %70 = load ptr, ptr %7, align 8
  %71 = load i32, ptr %10, align 4
  %72 = load i32, ptr %14, align 4
  %73 = load ptr, ptr %17, align 8
  %74 = load ptr, ptr %18, align 8
  %75 = call ptr (ptr, i32, ptr, i32, i32, i32, ptr, ...) @proto_tree_add_uint_format(ptr noundef %68, i32 noundef %69, ptr noundef %70, i32 noundef %71, i32 noundef 1, i32 noundef %72, ptr noundef @.str.785, ptr noundef %73, ptr noundef %74)
  %76 = load i32, ptr %10, align 4
  %77 = add i32 %76, 1
  store i32 %77, ptr %10, align 4
  br label %196

78:                                               ; preds = %5
  %79 = load ptr, ptr %11, align 8
  %80 = getelementptr inbounds nuw %struct.acn_dmp_adt_type, ptr %79, i32 0, i32 1
  %81 = load i32, ptr %80, align 4
  store i32 %81, ptr %15, align 4
  store i32 0, ptr %16, align 4
  br label %82

82:                                               ; preds = %131, %78
  %83 = load i32, ptr %16, align 4
  %84 = load ptr, ptr %11, align 8
  %85 = getelementptr inbounds nuw %struct.acn_dmp_adt_type, ptr %84, i32 0, i32 3
  %86 = load i32, ptr %85, align 4
  %87 = icmp ult i32 %83, %86
  br i1 %87, label %88, label %134

88:                                               ; preds = %82
  %89 = load i8, ptr %13, align 1
  %90 = zext i8 %89 to i32
  switch i32 %90, label %109 [
    i32 0, label %91
    i32 1, label %97
    i32 2, label %103
  ]

91:                                               ; preds = %88
  %92 = load ptr, ptr %8, align 8
  %93 = getelementptr inbounds nuw %struct._packet_info, ptr %92, i32 0, i32 51
  %94 = load ptr, ptr %93, align 8
  %95 = load i32, ptr %15, align 4
  %96 = call noalias ptr (ptr, ptr, ...) @wmem_strdup_printf(ptr noundef %94, ptr noundef @.str.775, i32 noundef %95)
  store ptr %96, ptr %17, align 8
  br label %111

97:                                               ; preds = %88
  %98 = load ptr, ptr %8, align 8
  %99 = getelementptr inbounds nuw %struct._packet_info, ptr %98, i32 0, i32 51
  %100 = load ptr, ptr %99, align 8
  %101 = load i32, ptr %15, align 4
  %102 = call noalias ptr (ptr, ptr, ...) @wmem_strdup_printf(ptr noundef %100, ptr noundef @.str.776, i32 noundef %101)
  store ptr %102, ptr %17, align 8
  br label %111

103:                                              ; preds = %88
  %104 = load ptr, ptr %8, align 8
  %105 = getelementptr inbounds nuw %struct._packet_info, ptr %104, i32 0, i32 51
  %106 = load ptr, ptr %105, align 8
  %107 = load i32, ptr %15, align 4
  %108 = call noalias ptr (ptr, ptr, ...) @wmem_strdup_printf(ptr noundef %106, ptr noundef @.str.777, i32 noundef %107)
  store ptr %108, ptr %17, align 8
  br label %111

109:                                              ; preds = %88
  %110 = load i32, ptr %10, align 4
  store i32 %110, ptr %6, align 4
  store i32 1, ptr %19, align 4
  br label %198

111:                                              ; preds = %103, %97, %91
  %112 = load ptr, ptr %7, align 8
  %113 = load i32, ptr %10, align 4
  %114 = call zeroext i8 @tvb_get_uint8(ptr noundef %112, i32 noundef %113)
  %115 = zext i8 %114 to i32
  store i32 %115, ptr %14, align 4
  %116 = load i32, ptr %14, align 4
  %117 = call ptr @val_to_str(i32 noundef %116, ptr noundef @acn_dmp_reason_code_vals, ptr noundef @.str.784)
  store ptr %117, ptr %18, align 8
  %118 = load ptr, ptr %9, align 8
  %119 = load i32, ptr @hf_acn_data8, align 4
  %120 = load ptr, ptr %7, align 8
  %121 = load i32, ptr %10, align 4
  %122 = load i32, ptr %14, align 4
  %123 = load ptr, ptr %17, align 8
  %124 = load ptr, ptr %18, align 8
  %125 = call ptr (ptr, i32, ptr, i32, i32, i32, ptr, ...) @proto_tree_add_uint_format(ptr noundef %118, i32 noundef %119, ptr noundef %120, i32 noundef %121, i32 noundef 1, i32 noundef %122, ptr noundef @.str.785, ptr noundef %123, ptr noundef %124)
  %126 = load ptr, ptr %11, align 8
  %127 = getelementptr inbounds nuw %struct.acn_dmp_adt_type, ptr %126, i32 0, i32 2
  %128 = load i32, ptr %127, align 4
  %129 = load i32, ptr %15, align 4
  %130 = add i32 %129, %128
  store i32 %130, ptr %15, align 4
  br label %131

131:                                              ; preds = %111
  %132 = load i32, ptr %16, align 4
  %133 = add i32 %132, 1
  store i32 %133, ptr %16, align 4
  br label %82, !llvm.loop !51

134:                                              ; preds = %82
  %135 = load i32, ptr %10, align 4
  %136 = add i32 %135, 1
  store i32 %136, ptr %10, align 4
  br label %196

137:                                              ; preds = %5, %5
  %138 = load ptr, ptr %11, align 8
  %139 = getelementptr inbounds nuw %struct.acn_dmp_adt_type, ptr %138, i32 0, i32 1
  %140 = load i32, ptr %139, align 4
  store i32 %140, ptr %15, align 4
  store i32 0, ptr %16, align 4
  br label %141

141:                                              ; preds = %192, %137
  %142 = load i32, ptr %16, align 4
  %143 = load ptr, ptr %11, align 8
  %144 = getelementptr inbounds nuw %struct.acn_dmp_adt_type, ptr %143, i32 0, i32 3
  %145 = load i32, ptr %144, align 4
  %146 = icmp ult i32 %142, %145
  br i1 %146, label %147, label %195

147:                                              ; preds = %141
  %148 = load i8, ptr %13, align 1
  %149 = zext i8 %148 to i32
  switch i32 %149, label %168 [
    i32 0, label %150
    i32 1, label %156
    i32 2, label %162
  ]

150:                                              ; preds = %147
  %151 = load ptr, ptr %8, align 8
  %152 = getelementptr inbounds nuw %struct._packet_info, ptr %151, i32 0, i32 51
  %153 = load ptr, ptr %152, align 8
  %154 = load i32, ptr %15, align 4
  %155 = call noalias ptr (ptr, ptr, ...) @wmem_strdup_printf(ptr noundef %153, ptr noundef @.str.775, i32 noundef %154)
  store ptr %155, ptr %17, align 8
  br label %170

156:                                              ; preds = %147
  %157 = load ptr, ptr %8, align 8
  %158 = getelementptr inbounds nuw %struct._packet_info, ptr %157, i32 0, i32 51
  %159 = load ptr, ptr %158, align 8
  %160 = load i32, ptr %15, align 4
  %161 = call noalias ptr (ptr, ptr, ...) @wmem_strdup_printf(ptr noundef %159, ptr noundef @.str.776, i32 noundef %160)
  store ptr %161, ptr %17, align 8
  br label %170

162:                                              ; preds = %147
  %163 = load ptr, ptr %8, align 8
  %164 = getelementptr inbounds nuw %struct._packet_info, ptr %163, i32 0, i32 51
  %165 = load ptr, ptr %164, align 8
  %166 = load i32, ptr %15, align 4
  %167 = call noalias ptr (ptr, ptr, ...) @wmem_strdup_printf(ptr noundef %165, ptr noundef @.str.777, i32 noundef %166)
  store ptr %167, ptr %17, align 8
  br label %170

168:                                              ; preds = %147
  %169 = load i32, ptr %10, align 4
  store i32 %169, ptr %6, align 4
  store i32 1, ptr %19, align 4
  br label %198

170:                                              ; preds = %162, %156, %150
  %171 = load ptr, ptr %7, align 8
  %172 = load i32, ptr %10, align 4
  %173 = call zeroext i8 @tvb_get_uint8(ptr noundef %171, i32 noundef %172)
  %174 = zext i8 %173 to i32
  store i32 %174, ptr %14, align 4
  %175 = load i32, ptr %14, align 4
  %176 = call ptr @val_to_str(i32 noundef %175, ptr noundef @acn_dmp_reason_code_vals, ptr noundef @.str.784)
  store ptr %176, ptr %18, align 8
  %177 = load ptr, ptr %9, align 8
  %178 = load i32, ptr @hf_acn_data8, align 4
  %179 = load ptr, ptr %7, align 8
  %180 = load i32, ptr %10, align 4
  %181 = load i32, ptr %14, align 4
  %182 = load ptr, ptr %17, align 8
  %183 = load ptr, ptr %18, align 8
  %184 = call ptr (ptr, i32, ptr, i32, i32, i32, ptr, ...) @proto_tree_add_uint_format(ptr noundef %177, i32 noundef %178, ptr noundef %179, i32 noundef %180, i32 noundef 1, i32 noundef %181, ptr noundef @.str.785, ptr noundef %182, ptr noundef %183)
  %185 = load ptr, ptr %11, align 8
  %186 = getelementptr inbounds nuw %struct.acn_dmp_adt_type, ptr %185, i32 0, i32 2
  %187 = load i32, ptr %186, align 4
  %188 = load i32, ptr %15, align 4
  %189 = add i32 %188, %187
  store i32 %189, ptr %15, align 4
  %190 = load i32, ptr %10, align 4
  %191 = add i32 %190, 1
  store i32 %191, ptr %10, align 4
  br label %192

192:                                              ; preds = %170
  %193 = load i32, ptr %16, align 4
  %194 = add i32 %193, 1
  store i32 %194, ptr %16, align 4
  br label %141, !llvm.loop !52

195:                                              ; preds = %141
  br label %196

196:                                              ; preds = %5, %195, %134, %61
  %197 = load i32, ptr %10, align 4
  store i32 %197, ptr %6, align 4
  store i32 1, ptr %19, align 4
  br label %198

198:                                              ; preds = %196, %168, %109, %59
  call void @llvm.lifetime.end.p0(i64 8, ptr %18) #7
  call void @llvm.lifetime.end.p0(i64 8, ptr %17) #7
  call void @llvm.lifetime.end.p0(i64 4, ptr %16) #7
  call void @llvm.lifetime.end.p0(i64 4, ptr %15) #7
  call void @llvm.lifetime.end.p0(i64 4, ptr %14) #7
  call void @llvm.lifetime.end.p0(i64 1, ptr %13) #7
  call void @llvm.lifetime.end.p0(i64 1, ptr %12) #7
  %199 = load i32, ptr %6, align 4
  ret i32 %199
}