; Function Attrs: null_pointer_is_valid sspstrong uwtable
define internal fastcc i32 @acn_add_dmp_reason_codes(ptr noundef %0, ptr noundef readonly captures(none) %1, ptr noundef %2, i32 noundef %3, ptr noundef readonly captures(none) %4) unnamed_addr #0 {
  %6 = load i8, ptr %4, align 4
  %7 = lshr i8 %6, 4
  %8 = and i8 %7, 3
  %9 = and i8 %6, 3
  switch i8 %8, label %default.unreachable91 [
    i8 0, label %10
    i8 1, label %25
    i8 2, label %46
    i8 3, label %46
  ]

10:                                               ; preds = %5
  %11 = getelementptr inbounds nuw i8, ptr %4, i64 4
  %12 = load i32, ptr %11, align 4
  switch i8 %9, label %default.unreachable91 [
    i8 0, label %15
    i8 1, label %13
    i8 2, label %14
    i8 3, label %.loopexit
  ]

13:                                               ; preds = %10
  br label %15

14:                                               ; preds = %10
  br label %15

15:                                               ; preds = %10, %14, %13
  %.str.777.sink = phi ptr [ @.str.777, %14 ], [ @.str.776, %13 ], [ @.str.775, %10 ]
  %16 = getelementptr inbounds nuw i8, ptr %1, i64 408
  %17 = load ptr, ptr %16, align 8
  %18 = tail call noalias ptr (ptr, ptr, ...) @wmem_strdup_printf(ptr noundef %17, ptr noundef nonnull %.str.777.sink, i32 noundef %12)
  %19 = tail call zeroext i8 @tvb_get_uint8(ptr noundef %0, i32 noundef %3)
  %20 = zext i8 %19 to i32
  %21 = tail call ptr @val_to_str(i32 noundef %20, ptr noundef nonnull @acn_dmp_reason_code_vals, ptr noundef nonnull @.str.784)
  %22 = load i32, ptr @hf_acn_data8, align 4
  %23 = tail call ptr (ptr, i32, ptr, i32, i32, i32, ptr, ...) @proto_tree_add_uint_format(ptr noundef %2, i32 noundef %22, ptr noundef %0, i32 noundef %3, i32 noundef 1, i32 noundef %20, ptr noundef nonnull @.str.785, ptr noundef %18, ptr noundef %21)
  %24 = add i32 %3, 1
  br label %.loopexit

25:                                               ; preds = %5
  %26 = getelementptr inbounds nuw i8, ptr %4, i64 12
  %27 = load i32, ptr %26, align 4
  %.not90 = icmp eq i32 %27, 0
  br i1 %.not90, label %._crit_edge, label %.lr.ph89

.lr.ph89:                                         ; preds = %25
  %28 = getelementptr inbounds nuw i8, ptr %1, i64 408
  %29 = getelementptr inbounds nuw i8, ptr %4, i64 8
  %cond = icmp eq i8 %9, 3
  br i1 %cond, label %.loopexit, label %.lr.ph89.split.preheader

.lr.ph89.split.preheader:                         ; preds = %.lr.ph89
  %30 = getelementptr inbounds nuw i8, ptr %4, i64 4
  %31 = load i32, ptr %30, align 4
  %32 = zext nneg i8 %9 to i64
  %switch.gep = getelementptr inbounds nuw [3 x ptr], ptr @switch.table.acn_add_dmp_reason_codes, i64 0, i64 %32
  %switch.load = load ptr, ptr %switch.gep, align 8
  br label %.lr.ph89.split

.lr.ph89.split:                                   ; preds = %.lr.ph89.split.preheader, %.lr.ph89.split
  %.07188 = phi i32 [ %42, %.lr.ph89.split ], [ 0, %.lr.ph89.split.preheader ]
  %.07387 = phi i32 [ %41, %.lr.ph89.split ], [ %31, %.lr.ph89.split.preheader ]
  %33 = load ptr, ptr %28, align 8
  %34 = tail call noalias ptr (ptr, ptr, ...) @wmem_strdup_printf(ptr noundef %33, ptr noundef nonnull %switch.load, i32 noundef %.07387)
  %35 = tail call zeroext i8 @tvb_get_uint8(ptr noundef %0, i32 noundef %3)
  %36 = zext i8 %35 to i32
  %37 = tail call ptr @val_to_str(i32 noundef %36, ptr noundef nonnull @acn_dmp_reason_code_vals, ptr noundef nonnull @.str.784)
  %38 = load i32, ptr @hf_acn_data8, align 4
  %39 = tail call ptr (ptr, i32, ptr, i32, i32, i32, ptr, ...) @proto_tree_add_uint_format(ptr noundef %2, i32 noundef %38, ptr noundef %0, i32 noundef %3, i32 noundef 1, i32 noundef %36, ptr noundef nonnull @.str.785, ptr noundef %34, ptr noundef %37)
  %40 = load i32, ptr %29, align 4
  %41 = add i32 %40, %.07387
  %42 = add nuw i32 %.07188, 1
  %43 = load i32, ptr %26, align 4
  %44 = icmp ult i32 %42, %43
  br i1 %44, label %.lr.ph89.split, label %._crit_edge, !llvm.loop !62

._crit_edge:                                      ; preds = %.lr.ph89.split, %25
  %45 = add i32 %3, 1
  br label %.loopexit

46:                                               ; preds = %5, %5
  %47 = getelementptr inbounds nuw i8, ptr %4, i64 12
  %48 = load i32, ptr %47, align 4
  %.not = icmp eq i32 %48, 0
  br i1 %.not, label %.loopexit, label %.lr.ph

.lr.ph:                                           ; preds = %46
  %49 = getelementptr inbounds nuw i8, ptr %4, i64 4
  %50 = load i32, ptr %49, align 4
  %51 = getelementptr inbounds nuw i8, ptr %1, i64 408
  %52 = getelementptr inbounds nuw i8, ptr %4, i64 8
  br label %53

53:                                               ; preds = %.lr.ph, %56
  %.17284 = phi i32 [ 0, %.lr.ph ], [ %67, %56 ]
  %.17483 = phi i32 [ %50, %.lr.ph ], [ %65, %56 ]
  %.17782 = phi i32 [ %3, %.lr.ph ], [ %66, %56 ]
  switch i8 %9, label %.unreachabledefault [
    i8 0, label %56
    i8 1, label %54
    i8 2, label %55
    i8 3, label %.loopexit
  ]

54:                                               ; preds = %53
  br label %56

55:                                               ; preds = %53
  br label %56

56:                                               ; preds = %53, %55, %54
  %.str.777.sink94 = phi ptr [ @.str.777, %55 ], [ @.str.776, %54 ], [ @.str.775, %53 ]
  %57 = load ptr, ptr %51, align 8
  %58 = tail call noalias ptr (ptr, ptr, ...) @wmem_strdup_printf(ptr noundef %57, ptr noundef nonnull %.str.777.sink94, i32 noundef %.17483)
  %59 = tail call zeroext i8 @tvb_get_uint8(ptr noundef %0, i32 noundef %.17782)
  %60 = zext i8 %59 to i32
  %61 = tail call ptr @val_to_str(i32 noundef %60, ptr noundef nonnull @acn_dmp_reason_code_vals, ptr noundef nonnull @.str.784)
  %62 = load i32, ptr @hf_acn_data8, align 4
  %63 = tail call ptr (ptr, i32, ptr, i32, i32, i32, ptr, ...) @proto_tree_add_uint_format(ptr noundef %2, i32 noundef %62, ptr noundef %0, i32 noundef %.17782, i32 noundef 1, i32 noundef %60, ptr noundef nonnull @.str.785, ptr noundef %58, ptr noundef %61)
  %64 = load i32, ptr %52, align 4
  %65 = add i32 %64, %.17483
  %66 = add i32 %.17782, 1
  %67 = add nuw i32 %.17284, 1
  %68 = load i32, ptr %47, align 4
  %69 = icmp ult i32 %67, %68
  br i1 %69, label %53, label %.loopexit, !llvm.loop !63

.unreachabledefault:                              ; preds = %53
  unreachable

default.unreachable91:                            ; preds = %10, %5
  unreachable

.loopexit:                                        ; preds = %53, %56, %46, %.lr.ph89, %15, %._crit_edge, %10
  %.075 = phi i32 [ %3, %10 ], [ %45, %._crit_edge ], [ %24, %15 ], [ %3, %.lr.ph89 ], [ %3, %46 ], [ %3, %53 ], [ %66, %56 ]
  ret i32 %.075
}